; Function Attrs: mustprogress uwtable
define internal fastcc void @_ZNK12_GLOBAL__N_115cmQtAutoMocUicT13JobEvalCacheT22MessageSearchLocationsB5cxx11Ev(ptr dead_on_unwind noalias nonnull writable align 8 %0, ptr nocapture noundef nonnull readonly align 8 dereferenceable(48) %1) unnamed_addr #3 align 2 personality ptr @__gxx_personality_v0 {
  %3 = alloca %"class.std::__cxx11::basic_string", align 8
  tail call void @_ZNSt7__cxx1112basic_stringIcSt11char_traitsIcESaIcEEC1Ev(ptr noundef nonnull align 8 dereferenceable(32) %0) #23
  invoke void @_ZNSt7__cxx1112basic_stringIcSt11char_traitsIcESaIcEE7reserveEm(ptr noundef nonnull align 8 dereferenceable(32) %0, i64 noundef 512)
          to label %4 unwind label %.loopexit.split-lp

4:                                                ; preds = %2
  %5 = getelementptr inbounds i8, ptr %1, i64 24
  %6 = load ptr, ptr %5, align 8
  %7 = getelementptr inbounds i8, ptr %1, i64 32
  %8 = load ptr, ptr %7, align 8
  %.not11 = icmp eq ptr %6, %8
  br i1 %.not11, label %._crit_edge, label %.lr.ph

.lr.ph:                                           ; preds = %4
  %9 = getelementptr inbounds i8, ptr %1, i64 8
  br label %10

10:                                               ; preds = %.lr.ph, %19
  %.sroa.08.012 = phi ptr [ %6, %.lr.ph ], [ %20, %19 ]
  %11 = invoke noundef nonnull align 8 dereferenceable(32) ptr @_ZNSt7__cxx1112basic_stringIcSt11char_traitsIcESaIcEEpLEPKc(ptr noundef nonnull align 8 dereferenceable(32) %0, ptr noundef nonnull @.str.140)
          to label %12 unwind label %.loopexit

12:                                               ; preds = %10
  %13 = call { i64, ptr } @_ZNKSt7__cxx1112basic_stringIcSt11char_traitsIcESaIcEEcvSt17basic_string_viewIcS2_EEv(ptr noundef nonnull align 8 dereferenceable(32) %.sroa.08.012) #23
  %14 = extractvalue { i64, ptr } %13, 0
  %15 = extractvalue { i64, ptr } %13, 1
  %.val = load ptr, ptr %9, align 8
  %.val.val = load ptr, ptr %.val, align 8
  invoke void @_ZNK17cmQtAutoGenerator11MessagePathB5cxx11ESt17basic_string_viewIcSt11char_traitsIcEE(ptr dead_on_unwind nonnull writable sret(%"class.std::__cxx11::basic_string") align 8 %3, ptr noundef nonnull align 8 dereferenceable(328) %.val.val, i64 %14, ptr %15)
          to label %_ZNK12_GLOBAL__N_115cmQtAutoMocUicT4JobT11MessagePathB5cxx11ESt17basic_string_viewIcSt11char_traitsIcEE.exit unwind label %.loopexit

_ZNK12_GLOBAL__N_115cmQtAutoMocUicT4JobT11MessagePathB5cxx11ESt17basic_string_viewIcSt11char_traitsIcEE.exit: ; preds = %12
  %16 = invoke noundef nonnull align 8 dereferenceable(32) ptr @_ZNSt7__cxx1112basic_stringIcSt11char_traitsIcESaIcEEpLERKS4_(ptr noundef nonnull align 8 dereferenceable(32) %0, ptr noundef nonnull align 8 dereferenceable(32) %3)
          to label %17 unwind label %21

17:                                               ; preds = %_ZNK12_GLOBAL__N_115cmQtAutoMocUicT4JobT11MessagePathB5cxx11ESt17basic_string_viewIcSt11char_traitsIcEE.exit
  call void @_ZNSt7__cxx1112basic_stringIcSt11char_traitsIcESaIcEED1Ev(ptr noundef nonnull align 8 dereferenceable(32) %3) #23
  %18 = invoke noundef nonnull align 8 dereferenceable(32) ptr @_ZNSt7__cxx1112basic_stringIcSt11char_traitsIcESaIcEEpLEc(ptr noundef nonnull align 8 dereferenceable(32) %0, i8 noundef signext 10)
          to label %19 unwind label %.loopexit

19:                                               ; preds = %17
  %20 = getelementptr inbounds i8, ptr %.sroa.08.012, i64 32
  %.not = icmp eq ptr %20, %8
  br i1 %.not, label %._crit_edge, label %10

.loopexit:                                        ; preds = %10, %17, %12
  %lpad.loopexit = landingpad { ptr, i32 }
          cleanup
  br label %23

.loopexit.split-lp:                               ; preds = %2
  %lpad.loopexit.split-lp = landingpad { ptr, i32 }
          cleanup
  br label %23

21:                                               ; preds = %_ZNK12_GLOBAL__N_115cmQtAutoMocUicT4JobT11MessagePathB5cxx11ESt17basic_string_viewIcSt11char_traitsIcEE.exit
  %22 = landingpad { ptr, i32 }
          cleanup
  call void @_ZNSt7__cxx1112basic_stringIcSt11char_traitsIcESaIcEED1Ev(ptr noundef nonnull align 8 dereferenceable(32) %3) #23
  br label %23

._crit_edge:                                      ; preds = %19, %4
  ret void

23:                                               ; preds = %.loopexit, %.loopexit.split-lp, %21
  %.pn = phi { ptr, i32 } [ %22, %21 ], [ %lpad.loopexit, %.loopexit ], [ %lpad.loopexit.split-lp, %.loopexit.split-lp ]
  call void @_ZNSt7__cxx1112basic_stringIcSt11char_traitsIcESaIcEED1Ev(ptr noundef nonnull align 8 dereferenceable(32) %0) #23
  resume { ptr, i32 } %.pn
}